target datalayout = "e-m:e-p270:32:32-p271:32:32-p272:64:64-i64:64-i128:128-f80:128-n8:16:32:64-S128"
target triple = "x86_64-pc-linux-gnu"

%struct._value_string_ext = type { ptr, i32, i32, ptr, ptr }
%struct.expert_field = type { i32, i32 }

@hf_r3_capabilities = internal global i32 0, align 4
@hf_r3_capabilities_length = internal global i32 0, align 4
@hf_r3_capabilities_type = internal global i32 0, align 4
@r3_capabilitiesnames_ext = internal global %struct._value_string_ext { ptr @_try_val_to_str_ext_init, i32 0, i32 8, ptr @r3_capabilitiesnames, ptr @.str.1779 }, align 8
@hf_r3_capabilities_value = internal global i32 0, align 4
@ett_r3capabilities = internal global i32 0, align 4
@ei_r3_malformed_length = internal global %struct.expert_field zeroinitializer, align 4
@.str.1860 = private unnamed_addr constant [29 x i8] c"%s:%u: failed assertion \22%s\22\00", align 1
@.str.1861 = private unnamed_addr constant [33 x i8] c"epan/dissectors/packet-assa_r3.c\00", align 1
@.str.1862 = private unnamed_addr constant [18 x i8] c"start_offset == 0\00", align 1
@.str.2115 = private unnamed_addr constant [66 x i8] c"Capabilities could not be decoded because length of 0 encountered\00", align 1
@.str.2116 = private unnamed_addr constant [24 x i8] c"Capabilities (%u items)\00", align 1
@.str.2117 = private unnamed_addr constant [21 x i8] c"[Unknown Field Name]\00", align 1
@.str.2118 = private unnamed_addr constant [10 x i8] c" (%s, %u)\00", align 1

; Function Attrs: null_pointer_is_valid sspstrong uwtable
define internal void @dissect_r3_upstreammfgfield_capabilities(ptr noundef %0, i32 noundef %1, i32 noundef %2, ptr noundef %3, ptr noundef %4) #0 {
  %6 = alloca ptr, align 8
  %7 = alloca i32, align 4
  %8 = alloca i32, align 4
  %9 = alloca ptr, align 8
  %10 = alloca ptr, align 8
  %11 = alloca ptr, align 8
  %12 = alloca i32, align 4
  %13 = alloca i32, align 4
  %14 = alloca i32, align 4
  %15 = alloca i32, align 4
  %16 = alloca i8, align 1
  %17 = alloca i32, align 4
  %18 = alloca ptr, align 8
  %19 = alloca ptr, align 8
  %20 = alloca ptr, align 8
  store ptr %0, ptr %6, align 8
  store i32 %1, ptr %7, align 4
  store i32 %2, ptr %8, align 4
  store ptr %3, ptr %9, align 8
  store ptr %4, ptr %10, align 8
  call void @llvm.lifetime.start.p0(i64 8, ptr %11) #5
  call void @llvm.lifetime.start.p0(i64 4, ptr %12) #5
  call void @llvm.lifetime.start.p0(i64 4, ptr %13) #5
  call void @llvm.lifetime.start.p0(i64 4, ptr %14) #5
  call void @llvm.lifetime.start.p0(i64 4, ptr %15) #5
  call void @llvm.lifetime.start.p0(i64 1, ptr %16) #5
  %21 = load i32, ptr %7, align 4
  %22 = icmp eq i32 %21, 0
  br i1 %22, label %23, label %24

23:                                               ; preds = %5
  br label %26

24:                                               ; preds = %5
  call void (ptr, ...) @proto_report_dissector_bug(ptr noundef @.str.1860, ptr noundef @.str.1861, i32 noundef 4718, ptr noundef @.str.1862) #6
  unreachable

25:                                               ; No predecessors!
  br label %26

26:                                               ; preds = %25, %23
  %27 = load ptr, ptr %6, align 8
  %28 = call i32 @tvb_reported_length_remaining(ptr noundef %27, i32 noundef 0)
  %29 = icmp sgt i32 0, %28
  br i1 %29, label %30, label %31

30:                                               ; preds = %26
  br label %34

31:                                               ; preds = %26
  %32 = load ptr, ptr %6, align 8
  %33 = call i32 @tvb_reported_length_remaining(ptr noundef %32, i32 noundef 0)
  br label %34

34:                                               ; preds = %31, %30
  %35 = phi i32 [ 0, %30 ], [ %33, %31 ]
  store i32 %35, ptr %12, align 4
  store i32 0, ptr %13, align 4
  store i32 0, ptr %15, align 4
  br label %36

36:                                               ; preds = %55, %34
  %37 = load i32, ptr %15, align 4
  %38 = load i32, ptr %12, align 4
  %39 = icmp slt i32 %37, %38
  br i1 %39, label %40, label %59

40:                                               ; preds = %36
  %41 = load i32, ptr %13, align 4
  %42 = add i32 %41, 1
  store i32 %42, ptr %13, align 4
  %43 = load ptr, ptr %6, align 8
  %44 = load i32, ptr %15, align 4
  %45 = call zeroext i8 @tvb_get_uint8(ptr noundef %43, i32 noundef %44)
  %46 = zext i8 %45 to i32
  store i32 %46, ptr %14, align 4
  %47 = load i32, ptr %14, align 4
  %48 = icmp ne i32 %47, 0
  br i1 %48, label %55, label %49

49:                                               ; preds = %40
  %50 = load ptr, ptr %10, align 8
  %51 = load ptr, ptr %9, align 8
  %52 = load ptr, ptr %6, align 8
  %53 = load i32, ptr %12, align 4
  %54 = call ptr (ptr, ptr, ptr, ptr, i32, i32, ptr, ...) @proto_tree_add_expert_format(ptr noundef %50, ptr noundef %51, ptr noundef @ei_r3_malformed_length, ptr noundef %52, i32 noundef 0, i32 noundef %53, ptr noundef @.str.2115)
  store i32 1, ptr %17, align 4
  br label %131

55:                                               ; preds = %40
  %56 = load i32, ptr %14, align 4
  %57 = load i32, ptr %15, align 4
  %58 = add i32 %57, %56
  store i32 %58, ptr %15, align 4
  br label %36, !llvm.loop !25

59:                                               ; preds = %36
  %60 = load ptr, ptr %10, align 8
  %61 = icmp ne ptr %60, null
  br i1 %61, label %63, label %62

62:                                               ; preds = %59
  store i32 1, ptr %17, align 4
  br label %131

63:                                               ; preds = %59
  %64 = load ptr, ptr %10, align 8
  %65 = load ptr, ptr %6, align 8
  %66 = load i32, ptr %12, align 4
  %67 = load i32, ptr @ett_r3capabilities, align 4
  %68 = load i32, ptr %13, align 4
  %69 = call ptr (ptr, ptr, i32, i32, i32, ptr, ptr, ...) @proto_tree_add_subtree_format(ptr noundef %64, ptr noundef %65, i32 noundef 0, i32 noundef %66, i32 noundef %67, ptr noundef null, ptr noundef @.str.2116, i32 noundef %68)
  store ptr %69, ptr %11, align 8
  store i32 0, ptr %15, align 4
  br label %70

70:                                               ; preds = %82, %63
  %71 = load i32, ptr %15, align 4
  %72 = load i32, ptr %12, align 4
  %73 = icmp slt i32 %71, %72
  br i1 %73, label %74, label %80

74:                                               ; preds = %70
  %75 = load ptr, ptr %6, align 8
  %76 = load i32, ptr %15, align 4
  %77 = call zeroext i8 @tvb_get_uint8(ptr noundef %75, i32 noundef %76)
  store i8 %77, ptr %16, align 1
  %78 = zext i8 %77 to i32
  %79 = icmp sgt i32 %78, 0
  br label %80

80:                                               ; preds = %74, %70
  %81 = phi i1 [ false, %70 ], [ %79, %74 ]
  br i1 %81, label %82, label %130

82:                                               ; preds = %80
  call void @llvm.lifetime.start.p0(i64 8, ptr %18) #5
  %83 = load ptr, ptr %11, align 8
  %84 = load i32, ptr @hf_r3_capabilities, align 4
  %85 = load ptr, ptr %6, align 8
  %86 = load i32, ptr %15, align 4
  %87 = load ptr, ptr %6, align 8
  %88 = load i32, ptr %15, align 4
  %89 = call zeroext i8 @tvb_get_uint8(ptr noundef %87, i32 noundef %88)
  %90 = zext i8 %89 to i32
  %91 = call ptr @proto_tree_add_item(ptr noundef %83, i32 noundef %84, ptr noundef %85, i32 noundef %86, i32 noundef %90, i32 noundef 0)
  store ptr %91, ptr %18, align 8
  call void @llvm.lifetime.start.p0(i64 8, ptr %19) #5
  %92 = load ptr, ptr %18, align 8
  %93 = load i32, ptr @ett_r3capabilities, align 4
  %94 = call ptr @proto_item_add_subtree(ptr noundef %92, i32 noundef %93)
  store ptr %94, ptr %19, align 8
  call void @llvm.lifetime.start.p0(i64 8, ptr %20) #5
  %95 = load ptr, ptr %6, align 8
  %96 = load i32, ptr %15, align 4
  %97 = add i32 %96, 1
  %98 = call zeroext i8 @tvb_get_uint8(ptr noundef %95, i32 noundef %97)
  %99 = zext i8 %98 to i32
  %100 = call ptr @val_to_str_ext_const(i32 noundef %99, ptr noundef @r3_capabilitiesnames_ext, ptr noundef @.str.2117)
  store ptr %100, ptr %20, align 8
  %101 = load ptr, ptr %18, align 8
  %102 = load ptr, ptr %20, align 8
  %103 = load ptr, ptr %6, align 8
  %104 = load i32, ptr %15, align 4
  %105 = add i32 %104, 2
  %106 = call zeroext i16 @tvb_get_letohs(ptr noundef %103, i32 noundef %105)
  %107 = zext i16 %106 to i32
  call void (ptr, ptr, ...) @proto_item_append_text(ptr noundef %101, ptr noundef @.str.2118, ptr noundef %102, i32 noundef %107)
  %108 = load ptr, ptr %19, align 8
  %109 = load i32, ptr @hf_r3_capabilities_length, align 4
  %110 = load ptr, ptr %6, align 8
  %111 = load i32, ptr %15, align 4
  %112 = add i32 %111, 0
  %113 = call ptr @proto_tree_add_item(ptr noundef %108, i32 noundef %109, ptr noundef %110, i32 noundef %112, i32 noundef 1, i32 noundef -2147483648)
  %114 = load ptr, ptr %19, align 8
  %115 = load i32, ptr @hf_r3_capabilities_type, align 4
  %116 = load ptr, ptr %6, align 8
  %117 = load i32, ptr %15, align 4
  %118 = add i32 %117, 1
  %119 = call ptr @proto_tree_add_item(ptr noundef %114, i32 noundef %115, ptr noundef %116, i32 noundef %118, i32 noundef 1, i32 noundef -2147483648)
  %120 = load ptr, ptr %19, align 8
  %121 = load i32, ptr @hf_r3_capabilities_value, align 4
  %122 = load ptr, ptr %6, align 8
  %123 = load i32, ptr %15, align 4
  %124 = add i32 %123, 2
  %125 = call ptr @proto_tree_add_item(ptr noundef %120, i32 noundef %121, ptr noundef %122, i32 noundef %124, i32 noundef 2, i32 noundef -2147483648)
  %126 = load i8, ptr %16, align 1
  %127 = zext i8 %126 to i32
  %128 = load i32, ptr %15, align 4
  %129 = add i32 %128, %127
  store i32 %129, ptr %15, align 4
  call void @llvm.lifetime.end.p0(i64 8, ptr %20) #5
  call void @llvm.lifetime.end.p0(i64 8, ptr %19) #5
  call void @llvm.lifetime.end.p0(i64 8, ptr %18) #5
  br label %70, !llvm.loop !26

130:                                              ; preds = %80
  store i32 0, ptr %17, align 4
  br label %131

131:                                              ; preds = %130, %62, %49
  call void @llvm.lifetime.end.p0(i64 1, ptr %16) #5
  call void @llvm.lifetime.end.p0(i64 4, ptr %15) #5
  call void @llvm.lifetime.end.p0(i64 4, ptr %14) #5
  call void @llvm.lifetime.end.p0(i64 4, ptr %13) #5
  call void @llvm.lifetime.end.p0(i64 4, ptr %12) #5
  call void @llvm.lifetime.end.p0(i64 8, ptr %11) #5
  %132 = load i32, ptr %17, align 4
  switch i32 %132, label %134 [
    i32 0, label %133
    i32 1, label %133
  ]

133:                                              ; preds = %131, %131
  ret void

134:                                              ; preds = %131
  unreachable
}