; Function Attrs: null_pointer_is_valid sspstrong uwtable
define internal void @dissect_r3_upstreammfgfield_capabilities(ptr noundef %0, i32 noundef %1, i32 %2, ptr noundef %3, ptr noundef %4) #0 {
  %6 = icmp eq i32 %1, 0
  br i1 %6, label %8, label %7

7:                                                ; preds = %5
  tail call void (ptr, ...) @proto_report_dissector_bug(ptr noundef nonnull @.str.1860, ptr noundef nonnull @.str.1861, i32 noundef 4718, ptr noundef nonnull @.str.1862) #6
  unreachable

8:                                                ; preds = %5
  %9 = tail call i32 @tvb_reported_length_remaining(ptr noundef %0, i32 noundef 0)
  %10 = icmp slt i32 %9, 0
  br i1 %10, label %._crit_edge.thread, label %11

11:                                               ; preds = %8
  %12 = tail call i32 @tvb_reported_length_remaining(ptr noundef %0, i32 noundef 0)
  %13 = icmp sgt i32 %12, 0
  br i1 %13, label %.lr.ph, label %._crit_edge

.lr.ph:                                           ; preds = %11, %17
  %.056 = phi i32 [ %19, %17 ], [ 0, %11 ]
  %.04655 = phi i32 [ %20, %17 ], [ 0, %11 ]
  %14 = tail call zeroext i8 @tvb_get_uint8(ptr noundef %0, i32 noundef %.04655)
  %.not53 = icmp eq i8 %14, 0
  br i1 %.not53, label %15, label %17

15:                                               ; preds = %.lr.ph
  %16 = tail call ptr (ptr, ptr, ptr, ptr, i32, i32, ptr, ...) @proto_tree_add_expert_format(ptr noundef %4, ptr noundef %3, ptr noundef nonnull @ei_r3_malformed_length, ptr noundef %0, i32 noundef 0, i32 noundef %12, ptr noundef nonnull @.str.2115)
  br label %.critedge

17:                                               ; preds = %.lr.ph
  %18 = zext i8 %14 to i32
  %19 = add i32 %.056, 1
  %20 = add i32 %.04655, %18
  %21 = icmp slt i32 %20, %12
  br i1 %21, label %.lr.ph, label %._crit_edge, !llvm.loop !24

._crit_edge:                                      ; preds = %17, %11
  %.0.lcssa = phi i32 [ 0, %11 ], [ %19, %17 ]
  %.not = icmp eq ptr %4, null
  br i1 %.not, label %.critedge, label %24

._crit_edge.thread:                               ; preds = %8
  %.not62 = icmp eq ptr %4, null
  br i1 %.not62, label %.critedge, label %.thread64

.thread64:                                        ; preds = %._crit_edge.thread
  %22 = load i32, ptr @ett_r3capabilities, align 4
  %23 = tail call ptr (ptr, ptr, i32, i32, i32, ptr, ptr, ...) @proto_tree_add_subtree_format(ptr noundef nonnull %4, ptr noundef %0, i32 noundef 0, i32 noundef 0, i32 noundef %22, ptr noundef null, ptr noundef nonnull @.str.2116, i32 noundef 0)
  br label %.critedge

24:                                               ; preds = %._crit_edge
  %25 = load i32, ptr @ett_r3capabilities, align 4
  %26 = tail call ptr (ptr, ptr, i32, i32, i32, ptr, ptr, ...) @proto_tree_add_subtree_format(ptr noundef nonnull %4, ptr noundef %0, i32 noundef 0, i32 noundef %12, i32 noundef %25, ptr noundef null, ptr noundef nonnull @.str.2116, i32 noundef %.0.lcssa)
  br i1 %13, label %.lr.ph59, label %.critedge

.lr.ph59:                                         ; preds = %24, %28
  %.157 = phi i32 [ %49, %28 ], [ 0, %24 ]
  %27 = tail call zeroext i8 @tvb_get_uint8(ptr noundef %0, i32 noundef %.157)
  %.not52 = icmp eq i8 %27, 0
  br i1 %.not52, label %.critedge, label %28

28:                                               ; preds = %.lr.ph59
  %29 = zext i8 %27 to i32
  %30 = load i32, ptr @hf_r3_capabilities, align 4
  %31 = tail call zeroext i8 @tvb_get_uint8(ptr noundef %0, i32 noundef %.157)
  %32 = zext i8 %31 to i32
  %33 = tail call ptr @proto_tree_add_item(ptr noundef %26, i32 noundef %30, ptr noundef %0, i32 noundef %.157, i32 noundef %32, i32 noundef 0)
  %34 = load i32, ptr @ett_r3capabilities, align 4
  %35 = tail call ptr @proto_item_add_subtree(ptr noundef %33, i32 noundef %34)
  %36 = add nsw i32 %.157, 1
  %37 = tail call zeroext i8 @tvb_get_uint8(ptr noundef %0, i32 noundef %36)
  %38 = zext i8 %37 to i32
  %39 = tail call ptr @val_to_str_ext_const(i32 noundef %38, ptr noundef nonnull @r3_capabilitiesnames_ext, ptr noundef nonnull @.str.2117)
  %40 = add i32 %.157, 2
  %41 = tail call zeroext i16 @tvb_get_letohs(ptr noundef %0, i32 noundef %40)
  %42 = zext i16 %41 to i32
  tail call void (ptr, ptr, ...) @proto_item_append_text(ptr noundef %33, ptr noundef nonnull @.str.2118, ptr noundef %39, i32 noundef %42)
  %43 = load i32, ptr @hf_r3_capabilities_length, align 4
  %44 = tail call ptr @proto_tree_add_item(ptr noundef %35, i32 noundef %43, ptr noundef %0, i32 noundef %.157, i32 noundef 1, i32 noundef -2147483648)
  %45 = load i32, ptr @hf_r3_capabilities_type, align 4
  %46 = tail call ptr @proto_tree_add_item(ptr noundef %35, i32 noundef %45, ptr noundef %0, i32 noundef %36, i32 noundef 1, i32 noundef -2147483648)
  %47 = load i32, ptr @hf_r3_capabilities_value, align 4
  %48 = tail call ptr @proto_tree_add_item(ptr noundef %35, i32 noundef %47, ptr noundef %0, i32 noundef %40, i32 noundef 2, i32 noundef -2147483648)
  %49 = add i32 %.157, %29
  %50 = icmp slt i32 %49, %12
  br i1 %50, label %.lr.ph59, label %.critedge, !llvm.loop !25

.critedge:                                        ; preds = %28, %.lr.ph59, %.thread64, %._crit_edge.thread, %24, %._crit_edge, %15
  ret void
}